; ModuleID = 'source-C-CXX/18/746.c'
source_filename = "source-C-CXX/18/746.c"
target datalayout = "e-m:e-p270:32:32-p271:32:32-p272:64:64-i64:64-f80:128-n8:16:32:64-S128"
target triple = "x86_64-pc-linux-gnu"

@.str = private unnamed_addr constant [5 x i8] c"%s%s\00", align 1
@.str.1 = private unnamed_addr constant [2 x i8] c" \00", align 1
@.str.2 = private unnamed_addr constant [3 x i8] c"%s\00", align 1

; Function Attrs: nounwind sspstrong uwtable
define dso_local i32 @main() local_unnamed_addr #0 {
  %1 = alloca [110 x i8], align 16
  %2 = alloca [110 x i8], align 16
  %3 = alloca [110 x i8], align 16
  %4 = getelementptr inbounds [110 x i8], [110 x i8]* %1, i64 0, i64 0
  call void @llvm.lifetime.start.p0i8(i64 110, i8* nonnull %4) #7
  %5 = getelementptr inbounds [110 x i8], [110 x i8]* %2, i64 0, i64 0
  call void @llvm.lifetime.start.p0i8(i64 110, i8* nonnull %5) #7
  %6 = getelementptr inbounds [110 x i8], [110 x i8]* %3, i64 0, i64 0
  call void @llvm.lifetime.start.p0i8(i64 110, i8* nonnull %6) #7
  %7 = call i32 (i8*, ...) bitcast (i32 (...)* @gets to i32 (i8*, ...)*)(i8* nonnull %4) #7
  %8 = call i32 (i8*, ...) @__isoc99_scanf(i8* getelementptr inbounds ([5 x i8], [5 x i8]* @.str, i64 0, i64 0), i8* nonnull %5, i8* nonnull %6)
  %9 = call i8* @strtok(i8* nonnull %4, i8* getelementptr inbounds ([2 x i8], [2 x i8]* @.str.1, i64 0, i64 0)) #7
  %10 = icmp eq i8* %9, null
  br i1 %10, label %27, label %11

11:                                               ; preds = %0
  %12 = call i32 @strcmp(i8* noundef nonnull %9, i8* noundef nonnull %5) #8
  %13 = icmp eq i32 %12, 0
  %14 = select i1 %13, i8* %6, i8* %9
  %15 = call i32 (i8*, ...) @printf(i8* nonnull dereferenceable(1) getelementptr inbounds ([3 x i8], [3 x i8]* @.str.2, i64 0, i64 0), i8* nonnull %14)
  %16 = call i8* @strtok(i8* null, i8* getelementptr inbounds ([2 x i8], [2 x i8]* @.str.1, i64 0, i64 0)) #7
  %17 = icmp eq i8* %16, null
  br i1 %17, label %27, label %18

18:                                               ; preds = %11, %18
  %19 = phi i8* [ %25, %18 ], [ %16, %11 ]
  %20 = call i32 @putchar(i32 32)
  %21 = call i32 @strcmp(i8* noundef nonnull %19, i8* noundef nonnull %5) #8
  %22 = icmp eq i32 %21, 0
  %23 = select i1 %22, i8* %6, i8* %19
  %24 = call i32 (i8*, ...) @printf(i8* nonnull dereferenceable(1) getelementptr inbounds ([3 x i8], [3 x i8]* @.str.2, i64 0, i64 0), i8* nonnull %23)
  %25 = call i8* @strtok(i8* null, i8* getelementptr inbounds ([2 x i8], [2 x i8]* @.str.1, i64 0, i64 0)) #7
  %26 = icmp eq i8* %25, null
  br i1 %26, label %27, label %18, !llvm.loop !5

27:                                               ; preds = %18, %11, %0
  %28 = call i32 @putchar(i32 10)
  call void @llvm.lifetime.end.p0i8(i64 110, i8* nonnull %6) #7
  call void @llvm.lifetime.end.p0i8(i64 110, i8* nonnull %5) #7
  call void @llvm.lifetime.end.p0i8(i64 110, i8* nonnull %4) #7
  ret i32 0
}

; Function Attrs: argmemonly mustprogress nofree nosync nounwind willreturn
declare void @llvm.lifetime.start.p0i8(i64 immarg, i8* nocapture) #1

declare i32 @gets(...) local_unnamed_addr #2

; Function Attrs: nofree nounwind
declare noundef i32 @__isoc99_scanf(i8* nocapture noundef readonly, ...) local_unnamed_addr #3

; Function Attrs: mustprogress nofree nounwind willreturn
declare i8* @strtok(i8*, i8* nocapture readonly) local_unnamed_addr #4

; Function Attrs: nofree nounwind
declare noundef i32 @printf(i8* nocapture noundef readonly, ...) local_unnamed_addr #3

; Function Attrs: argmemonly mustprogress nofree nounwind readonly willreturn
declare i32 @strcmp(i8* nocapture, i8* nocapture) local_unnamed_addr #5

; Function Attrs: argmemonly mustprogress nofree nosync nounwind willreturn
declare void @llvm.lifetime.end.p0i8(i64 immarg, i8* nocapture) #1

; Function Attrs: nofree nounwind
declare noundef i32 @putchar(i32 noundef) local_unnamed_addr #6


!llvm.module.flags = !{!0, !1, !2, !3}
!llvm.ident = !{!4}

!0 = !{i32 1, !"wchar_size", i32 4}
!1 = !{i32 7, !"PIC Level", i32 2}
!2 = !{i32 7, !"PIE Level", i32 2}
!3 = !{i32 7, !"uwtable", i32 1}
!4 = !{!"clang version 13.0.0"}
!5 = distinct !{!5, !6, !7}
!6 = !{!"llvm.loop.mustprogress"}
!7 = !{!"llvm.loop.peeled.count", i32 1}
